target datalayout = "e-m:e-p270:32:32-p271:32:32-p272:64:64-i64:64-i128:128-f80:128-n8:16:32:64-S128"
target triple = "x86_64-pc-linux-gnu"

%struct.AVCodecContext = type { ptr, i32, i32, ptr, i32, i32, ptr, ptr, ptr, i64, i32, i32, ptr, i32, %struct.AVRational, %struct.AVRational, %struct.AVRational, i32, i32, i32, i32, i32, %struct.AVRational, i32, i32, i32, i32, i32, i32, i32, i32, i32, i32, i32, ptr, ptr, i32, float, float, float, float, float, float, float, float, float, i32, i32, i32, i32, i32, i32, i32, i32, i32, i32, i32, i32, ptr, ptr, ptr, i32, i32, i32, i32, i32, i32, i32, i32, i32, i32, %struct.AVChannelLayout, i32, i32, i32, i32, i32, i32, i32, i32, ptr, i32, i32, i32, float, float, i32, i32, i32, i32, i32, ptr, i64, i64, float, float, i32, i32, ptr, ptr, i32, i32, i32, i32, i32, ptr, ptr, ptr, ptr, i32, i32, [8 x i64], i32, i32, i32, i32, i32, i32, i32, ptr, ptr, i32, i32, i32, i32, i32, i32, i32, i32, i32, i32, ptr, ptr, i32, i32, ptr, ptr, ptr, ptr, i32, i32, i64, i32, i32, i64, ptr, i64, ptr, i32, ptr, i32 }
%struct.AVRational = type { i32, i32 }
%struct.AVChannelLayout = type { i32, i32, %union.anon.0, ptr }
%union.anon.0 = type { i64 }
%struct.RsccContext = type { %struct.GetByteContext, ptr, ptr, i32, i32, [1024 x i8], ptr, i64, i32 }
%struct.GetByteContext = type { ptr, ptr, ptr }

@.str.2 = private unnamed_addr constant [27 x i8] c"Invalid image size %dx%d.\0A\00", align 1
@.str.3 = private unnamed_addr constant [35 x i8] c"Invalid bits per pixel value (%d)\0A\00", align 1
@.str.4 = private unnamed_addr constant [19 x i8] c"Invalid codec tag\0A\00", align 1

; Function Attrs: cold nounwind optsize uwtable
define internal i32 @rscc_init(ptr noundef %0) #0 {
  %2 = alloca i32, align 4
  %3 = alloca ptr, align 8
  %4 = alloca ptr, align 8
  %5 = alloca i32, align 4
  %6 = alloca i32, align 4
  store ptr %0, ptr %3, align 8, !tbaa !4
  call void @llvm.lifetime.start.p0(i64 8, ptr %4) #7
  %7 = load ptr, ptr %3, align 8, !tbaa !4
  %8 = getelementptr inbounds nuw %struct.AVCodecContext, ptr %7, i32 0, i32 6
  %9 = load ptr, ptr %8, align 8, !tbaa !9
  store ptr %9, ptr %4, align 8, !tbaa !29
  call void @llvm.lifetime.start.p0(i64 4, ptr %5) #7
  %10 = load ptr, ptr %3, align 8, !tbaa !4
  %11 = getelementptr inbounds nuw %struct.AVCodecContext, ptr %10, i32 0, i32 18
  %12 = load i32, ptr %11, align 8, !tbaa !31
  %13 = load ptr, ptr %3, align 8, !tbaa !4
  %14 = getelementptr inbounds nuw %struct.AVCodecContext, ptr %13, i32 0, i32 19
  %15 = load i32, ptr %14, align 4, !tbaa !32
  %16 = load ptr, ptr %3, align 8, !tbaa !4
  %17 = call i32 @av_image_check_size(i32 noundef %12, i32 noundef %15, i32 noundef 0, ptr noundef %16)
  store i32 %17, ptr %5, align 4, !tbaa !33
  %18 = load i32, ptr %5, align 4, !tbaa !33
  %19 = icmp slt i32 %18, 0
  br i1 %19, label %20, label %29

20:                                               ; preds = %1
  %21 = load ptr, ptr %3, align 8, !tbaa !4
  %22 = load ptr, ptr %3, align 8, !tbaa !4
  %23 = getelementptr inbounds nuw %struct.AVCodecContext, ptr %22, i32 0, i32 18
  %24 = load i32, ptr %23, align 8, !tbaa !31
  %25 = load ptr, ptr %3, align 8, !tbaa !4
  %26 = getelementptr inbounds nuw %struct.AVCodecContext, ptr %25, i32 0, i32 19
  %27 = load i32, ptr %26, align 4, !tbaa !32
  call void (ptr, i32, ptr, ...) @av_log(ptr noundef %21, i32 noundef 16, ptr noundef @.str.2, i32 noundef %24, i32 noundef %27)
  %28 = load i32, ptr %5, align 4, !tbaa !33
  store i32 %28, ptr %2, align 4
  store i32 1, ptr %6, align 4
  br label %147

29:                                               ; preds = %1
  %30 = call ptr @av_frame_alloc()
  %31 = load ptr, ptr %4, align 8, !tbaa !29
  %32 = getelementptr inbounds nuw %struct.RsccContext, ptr %31, i32 0, i32 1
  store ptr %30, ptr %32, align 8, !tbaa !34
  %33 = load ptr, ptr %4, align 8, !tbaa !29
  %34 = getelementptr inbounds nuw %struct.RsccContext, ptr %33, i32 0, i32 1
  %35 = load ptr, ptr %34, align 8, !tbaa !34
  %36 = icmp ne ptr %35, null
  br i1 %36, label %38, label %37

37:                                               ; preds = %29
  store i32 -12, ptr %2, align 4
  store i32 1, ptr %6, align 4
  br label %147

38:                                               ; preds = %29
  %39 = load ptr, ptr %3, align 8, !tbaa !4
  %40 = getelementptr inbounds nuw %struct.AVCodecContext, ptr %39, i32 0, i32 5
  %41 = load i32, ptr %40, align 4, !tbaa !39
  %42 = icmp eq i32 %41, 1128485705
  br i1 %42, label %43, label %80

43:                                               ; preds = %38
  %44 = load ptr, ptr %3, align 8, !tbaa !4
  %45 = getelementptr inbounds nuw %struct.AVCodecContext, ptr %44, i32 0, i32 12
  %46 = load ptr, ptr %45, align 8, !tbaa !40
  %47 = icmp ne ptr %46, null
  br i1 %47, label %48, label %74

48:                                               ; preds = %43
  %49 = load ptr, ptr %3, align 8, !tbaa !4
  %50 = getelementptr inbounds nuw %struct.AVCodecContext, ptr %49, i32 0, i32 13
  %51 = load i32, ptr %50, align 8, !tbaa !41
  %52 = icmp eq i32 %51, 4
  br i1 %52, label %53, label %74

53:                                               ; preds = %48
  %54 = load ptr, ptr %3, align 8, !tbaa !4
  %55 = getelementptr inbounds nuw %struct.AVCodecContext, ptr %54, i32 0, i32 12
  %56 = load ptr, ptr %55, align 8, !tbaa !40
  %57 = getelementptr inbounds i8, ptr %56, i64 0
  %58 = load i8, ptr %57, align 1, !tbaa !42
  %59 = zext i8 %58 to i32
  %60 = ashr i32 %59, 1
  %61 = and i32 %60, 1
  %62 = icmp ne i32 %61, 0
  br i1 %62, label %63, label %68

63:                                               ; preds = %53
  %64 = load ptr, ptr %3, align 8, !tbaa !4
  %65 = getelementptr inbounds nuw %struct.AVCodecContext, ptr %64, i32 0, i32 23
  store i32 28, ptr %65, align 8, !tbaa !43
  %66 = load ptr, ptr %4, align 8, !tbaa !29
  %67 = getelementptr inbounds nuw %struct.RsccContext, ptr %66, i32 0, i32 4
  store i32 4, ptr %67, align 4, !tbaa !44
  br label %73

68:                                               ; preds = %53
  %69 = load ptr, ptr %3, align 8, !tbaa !4
  %70 = getelementptr inbounds nuw %struct.AVCodecContext, ptr %69, i32 0, i32 23
  store i32 3, ptr %70, align 8, !tbaa !43
  %71 = load ptr, ptr %4, align 8, !tbaa !29
  %72 = getelementptr inbounds nuw %struct.RsccContext, ptr %71, i32 0, i32 4
  store i32 3, ptr %72, align 4, !tbaa !44
  br label %73

73:                                               ; preds = %68, %63
  br label %79

74:                                               ; preds = %48, %43
  %75 = load ptr, ptr %3, align 8, !tbaa !4
  %76 = getelementptr inbounds nuw %struct.AVCodecContext, ptr %75, i32 0, i32 23
  store i32 28, ptr %76, align 8, !tbaa !43
  %77 = load ptr, ptr %4, align 8, !tbaa !29
  %78 = getelementptr inbounds nuw %struct.RsccContext, ptr %77, i32 0, i32 4
  store i32 4, ptr %78, align 4, !tbaa !44
  br label %79

79:                                               ; preds = %74, %73
  br label %120

80:                                               ; preds = %38
  %81 = load ptr, ptr %3, align 8, !tbaa !4
  %82 = getelementptr inbounds nuw %struct.AVCodecContext, ptr %81, i32 0, i32 5
  %83 = load i32, ptr %82, align 4, !tbaa !39
  %84 = icmp eq i32 %83, 1128485714
  br i1 %84, label %85, label %113

85:                                               ; preds = %80
  %86 = load ptr, ptr %3, align 8, !tbaa !4
  %87 = getelementptr inbounds nuw %struct.AVCodecContext, ptr %86, i32 0, i32 114
  %88 = load i32, ptr %87, align 8, !tbaa !45
  %89 = sdiv i32 %88, 8
  %90 = load ptr, ptr %4, align 8, !tbaa !29
  %91 = getelementptr inbounds nuw %struct.RsccContext, ptr %90, i32 0, i32 4
  store i32 %89, ptr %91, align 4, !tbaa !44
  %92 = load ptr, ptr %3, align 8, !tbaa !4
  %93 = getelementptr inbounds nuw %struct.AVCodecContext, ptr %92, i32 0, i32 114
  %94 = load i32, ptr %93, align 8, !tbaa !45
  switch i32 %94, label %107 [
    i32 8, label %95
    i32 16, label %98
    i32 24, label %101
    i32 32, label %104
  ]

95:                                               ; preds = %85
  %96 = load ptr, ptr %3, align 8, !tbaa !4
  %97 = getelementptr inbounds nuw %struct.AVCodecContext, ptr %96, i32 0, i32 23
  store i32 11, ptr %97, align 8, !tbaa !43
  br label %112

98:                                               ; preds = %85
  %99 = load ptr, ptr %3, align 8, !tbaa !4
  %100 = getelementptr inbounds nuw %struct.AVCodecContext, ptr %99, i32 0, i32 23
  store i32 39, ptr %100, align 8, !tbaa !43
  br label %112

101:                                              ; preds = %85
  %102 = load ptr, ptr %3, align 8, !tbaa !4
  %103 = getelementptr inbounds nuw %struct.AVCodecContext, ptr %102, i32 0, i32 23
  store i32 3, ptr %103, align 8, !tbaa !43
  br label %112

104:                                              ; preds = %85
  %105 = load ptr, ptr %3, align 8, !tbaa !4
  %106 = getelementptr inbounds nuw %struct.AVCodecContext, ptr %105, i32 0, i32 23
  store i32 121, ptr %106, align 8, !tbaa !43
  br label %112

107:                                              ; preds = %85
  %108 = load ptr, ptr %3, align 8, !tbaa !4
  %109 = load ptr, ptr %3, align 8, !tbaa !4
  %110 = getelementptr inbounds nuw %struct.AVCodecContext, ptr %109, i32 0, i32 114
  %111 = load i32, ptr %110, align 8, !tbaa !45
  call void (ptr, i32, ptr, ...) @av_log(ptr noundef %108, i32 noundef 16, ptr noundef @.str.3, i32 noundef %111)
  store i32 -1094995529, ptr %2, align 4
  store i32 1, ptr %6, align 4
  br label %147

112:                                              ; preds = %104, %101, %98, %95
  br label %119

113:                                              ; preds = %80
  %114 = load ptr, ptr %3, align 8, !tbaa !4
  %115 = getelementptr inbounds nuw %struct.AVCodecContext, ptr %114, i32 0, i32 23
  store i32 121, ptr %115, align 8, !tbaa !43
  %116 = load ptr, ptr %4, align 8, !tbaa !29
  %117 = getelementptr inbounds nuw %struct.RsccContext, ptr %116, i32 0, i32 4
  store i32 4, ptr %117, align 4, !tbaa !44
  %118 = load ptr, ptr %3, align 8, !tbaa !4
  call void (ptr, i32, ptr, ...) @av_log(ptr noundef %118, i32 noundef 24, ptr noundef @.str.4)
  br label %119

119:                                              ; preds = %113, %112
  br label %120

120:                                              ; preds = %119, %79
  %121 = load ptr, ptr %3, align 8, !tbaa !4
  %122 = getelementptr inbounds nuw %struct.AVCodecContext, ptr %121, i32 0, i32 18
  %123 = load i32, ptr %122, align 8, !tbaa !31
  %124 = load ptr, ptr %3, align 8, !tbaa !4
  %125 = getelementptr inbounds nuw %struct.AVCodecContext, ptr %124, i32 0, i32 19
  %126 = load i32, ptr %125, align 4, !tbaa !32
  %127 = mul nsw i32 %123, %126
  %128 = load ptr, ptr %4, align 8, !tbaa !29
  %129 = getelementptr inbounds nuw %struct.RsccContext, ptr %128, i32 0, i32 4
  %130 = load i32, ptr %129, align 4, !tbaa !44
  %131 = mul nsw i32 %127, %130
  %132 = sext i32 %131 to i64
  %133 = load ptr, ptr %4, align 8, !tbaa !29
  %134 = getelementptr inbounds nuw %struct.RsccContext, ptr %133, i32 0, i32 7
  store i64 %132, ptr %134, align 8, !tbaa !46
  %135 = load ptr, ptr %4, align 8, !tbaa !29
  %136 = getelementptr inbounds nuw %struct.RsccContext, ptr %135, i32 0, i32 7
  %137 = load i64, ptr %136, align 8, !tbaa !46
  %138 = call noalias ptr @av_malloc(i64 noundef %137)
  %139 = load ptr, ptr %4, align 8, !tbaa !29
  %140 = getelementptr inbounds nuw %struct.RsccContext, ptr %139, i32 0, i32 6
  store ptr %138, ptr %140, align 8, !tbaa !47
  %141 = load ptr, ptr %4, align 8, !tbaa !29
  %142 = getelementptr inbounds nuw %struct.RsccContext, ptr %141, i32 0, i32 6
  %143 = load ptr, ptr %142, align 8, !tbaa !47
  %144 = icmp ne ptr %143, null
  br i1 %144, label %146, label %145

145:                                              ; preds = %120
  store i32 -12, ptr %2, align 4
  store i32 1, ptr %6, align 4
  br label %147

146:                                              ; preds = %120
  store i32 0, ptr %2, align 4
  store i32 1, ptr %6, align 4
  br label %147

147:                                              ; preds = %146, %145, %107, %37, %20
  call void @llvm.lifetime.end.p0(i64 4, ptr %5) #7
  call void @llvm.lifetime.end.p0(i64 8, ptr %4) #7
  %148 = load i32, ptr %2, align 4
  ret i32 %148
}