; Function Attrs: cold nounwind optsize uwtable
define internal range(i32 -2147483648, 1) i32 @rscc_init(ptr noundef %0) #0 {
  %2 = getelementptr inbounds nuw i8, ptr %0, i64 32
  %3 = load ptr, ptr %2, align 8, !tbaa !4
  %4 = getelementptr inbounds nuw i8, ptr %0, i64 112
  %5 = load i32, ptr %4, align 8, !tbaa !27
  %6 = getelementptr inbounds nuw i8, ptr %0, i64 116
  %7 = load i32, ptr %6, align 4, !tbaa !28
  %8 = tail call i32 @av_image_check_size(i32 noundef %5, i32 noundef %7, i32 noundef 0, ptr noundef %0) #7
  %9 = icmp slt i32 %8, 0
  br i1 %9, label %10, label %13

10:                                               ; preds = %1
  %11 = load i32, ptr %4, align 8, !tbaa !27
  %12 = load i32, ptr %6, align 4, !tbaa !28
  tail call void (ptr, i32, ptr, ...) @av_log(ptr noundef nonnull %0, i32 noundef 16, ptr noundef nonnull @.str.2, i32 noundef %11, i32 noundef %12) #7
  br label %65

13:                                               ; preds = %1
  %14 = tail call ptr @av_frame_alloc() #7
  %15 = getelementptr inbounds nuw i8, ptr %3, i64 24
  store ptr %14, ptr %15, align 8, !tbaa !29
  %.not = icmp eq ptr %14, null
  br i1 %.not, label %65, label %16

16:                                               ; preds = %13
  %17 = getelementptr inbounds nuw i8, ptr %0, i64 28
  %18 = load i32, ptr %17, align 4, !tbaa !34
  switch i32 %18, label %52 [
    i32 1128485705, label %19
    i32 1128485714, label %36
  ]

19:                                               ; preds = %16
  %20 = getelementptr inbounds nuw i8, ptr %0, i64 72
  %21 = load ptr, ptr %20, align 8, !tbaa !35
  %.not44 = icmp eq ptr %21, null
  br i1 %.not44, label %33, label %22

22:                                               ; preds = %19
  %23 = getelementptr inbounds nuw i8, ptr %0, i64 80
  %24 = load i32, ptr %23, align 8, !tbaa !36
  %25 = icmp eq i32 %24, 4
  br i1 %25, label %26, label %33

26:                                               ; preds = %22
  %27 = load i8, ptr %21, align 1, !tbaa !37
  %28 = and i8 %27, 2
  %.not45 = icmp eq i8 %28, 0
  %29 = getelementptr inbounds nuw i8, ptr %0, i64 136
  %30 = getelementptr inbounds nuw i8, ptr %3, i64 44
  br i1 %.not45, label %32, label %31

31:                                               ; preds = %26
  store i32 28, ptr %29, align 8, !tbaa !38
  store i32 4, ptr %30, align 4, !tbaa !39
  br label %55

32:                                               ; preds = %26
  store i32 3, ptr %29, align 8, !tbaa !38
  store i32 3, ptr %30, align 4, !tbaa !39
  br label %55

33:                                               ; preds = %22, %19
  %34 = getelementptr inbounds nuw i8, ptr %0, i64 136
  store i32 28, ptr %34, align 8, !tbaa !38
  %35 = getelementptr inbounds nuw i8, ptr %3, i64 44
  store i32 4, ptr %35, align 4, !tbaa !39
  br label %55

36:                                               ; preds = %16
  %37 = getelementptr inbounds nuw i8, ptr %0, i64 648
  %38 = load i32, ptr %37, align 8, !tbaa !40
  %39 = sdiv i32 %38, 8
  %40 = getelementptr inbounds nuw i8, ptr %3, i64 44
  store i32 %39, ptr %40, align 4, !tbaa !39
  %41 = add i32 %38, -8
  %42 = tail call i32 @llvm.fshl.i32(i32 %41, i32 %41, i32 29)
  switch i32 %42, label %51 [
    i32 0, label %43
    i32 1, label %45
    i32 2, label %47
    i32 3, label %49
  ]

43:                                               ; preds = %36
  %44 = getelementptr inbounds nuw i8, ptr %0, i64 136
  store i32 11, ptr %44, align 8, !tbaa !38
  br label %55

45:                                               ; preds = %36
  %46 = getelementptr inbounds nuw i8, ptr %0, i64 136
  store i32 39, ptr %46, align 8, !tbaa !38
  br label %55

47:                                               ; preds = %36
  %48 = getelementptr inbounds nuw i8, ptr %0, i64 136
  store i32 3, ptr %48, align 8, !tbaa !38
  br label %55

49:                                               ; preds = %36
  %50 = getelementptr inbounds nuw i8, ptr %0, i64 136
  store i32 121, ptr %50, align 8, !tbaa !38
  br label %55

51:                                               ; preds = %36
  tail call void (ptr, i32, ptr, ...) @av_log(ptr noundef nonnull %0, i32 noundef 16, ptr noundef nonnull @.str.3, i32 noundef %38) #7
  br label %65

52:                                               ; preds = %16
  %53 = getelementptr inbounds nuw i8, ptr %0, i64 136
  store i32 121, ptr %53, align 8, !tbaa !38
  %54 = getelementptr inbounds nuw i8, ptr %3, i64 44
  store i32 4, ptr %54, align 4, !tbaa !39
  tail call void (ptr, i32, ptr, ...) @av_log(ptr noundef nonnull %0, i32 noundef 24, ptr noundef nonnull @.str.4) #7
  %.pre = load i32, ptr %54, align 4, !tbaa !39
  br label %55

55:                                               ; preds = %52, %49, %47, %45, %43, %33, %32, %31
  %56 = phi i32 [ %.pre, %52 ], [ %39, %49 ], [ %39, %47 ], [ %39, %45 ], [ %39, %43 ], [ 4, %33 ], [ 3, %32 ], [ 4, %31 ]
  %57 = load i32, ptr %4, align 8, !tbaa !27
  %58 = load i32, ptr %6, align 4, !tbaa !28
  %59 = mul nsw i32 %58, %57
  %60 = mul nsw i32 %59, %56
  %61 = sext i32 %60 to i64
  %62 = getelementptr inbounds nuw i8, ptr %3, i64 1080
  store i64 %61, ptr %62, align 8, !tbaa !41
  %63 = tail call noalias ptr @av_malloc(i64 noundef %61) #7
  %64 = getelementptr inbounds nuw i8, ptr %3, i64 1072
  store ptr %63, ptr %64, align 8, !tbaa !42
  %.not46 = icmp eq ptr %63, null
  %. = select i1 %.not46, i32 -12, i32 0
  br label %65

65:                                               ; preds = %55, %13, %51, %10
  %.0 = phi i32 [ %8, %10 ], [ -1094995529, %51 ], [ -12, %13 ], [ %., %55 ]
  ret i32 %.0
}